target datalayout = "e-m:e-p270:32:32-p271:32:32-p272:64:64-i64:64-i128:128-f80:128-n8:16:32:64-S128"
target triple = "x86_64-pc-linux-gnu"

%struct.ScratchBuf = type { [65536 x i8], i32 }
%struct.Float = type { double, i32 }

@err_invalid_float_width = internal global ptr @.str.1, align 8
@err_float_out_of_range = internal global ptr @.str.2, align 8
@scratch_buffer = external global %struct.ScratchBuf, align 4
@err_float_format_invalid = internal global ptr @.str.3, align 8

; Function Attrs: nounwind uwtable
define dso_local { double, i32 } @float_from_string(ptr noundef %0, ptr noundef %1) #0 {
  %3 = alloca %struct.Float, align 8
  %4 = alloca ptr, align 8
  %5 = alloca ptr, align 8
  %6 = alloca ptr, align 8
  %7 = alloca i8, align 1
  %8 = alloca i32, align 4
  %9 = alloca i32, align 4
  %10 = alloca ptr, align 8
  %11 = alloca ptr, align 8
  %12 = alloca double, align 8
  %13 = alloca ptr, align 8
  store ptr %0, ptr %4, align 8
  store ptr %1, ptr %5, align 8
  %14 = load ptr, ptr %4, align 8
  store ptr %14, ptr %6, align 8
  call void @scratch_buffer_clear()
  br label %15

15:                                               ; preds = %44, %43, %2
  %16 = load ptr, ptr %6, align 8
  %17 = getelementptr inbounds i8, ptr %16, i32 1
  store ptr %17, ptr %6, align 8
  %18 = load i8, ptr %16, align 1
  store i8 %18, ptr %7, align 1
  %19 = sext i8 %18 to i32
  %20 = icmp ne i32 %19, 0
  br i1 %20, label %21, label %37

21:                                               ; preds = %15
  %22 = load i8, ptr %7, align 1
  %23 = sext i8 %22 to i32
  %24 = icmp eq i32 %23, 95
  br i1 %24, label %35, label %25

25:                                               ; preds = %21
  %26 = load i8, ptr %7, align 1
  %27 = sext i8 %26 to i32
  %28 = icmp sge i32 %27, 48
  br i1 %28, label %29, label %33

29:                                               ; preds = %25
  %30 = load i8, ptr %7, align 1
  %31 = sext i8 %30 to i32
  %32 = icmp sle i32 %31, 57
  br label %33

33:                                               ; preds = %29, %25
  %34 = phi i1 [ false, %25 ], [ %32, %29 ]
  br label %35

35:                                               ; preds = %33, %21
  %36 = phi i1 [ true, %21 ], [ %34, %33 ]
  br label %37

37:                                               ; preds = %35, %15
  %38 = phi i1 [ false, %15 ], [ %36, %35 ]
  br i1 %38, label %39, label %46

39:                                               ; preds = %37
  %40 = load i8, ptr %7, align 1
  %41 = sext i8 %40 to i32
  %42 = icmp eq i32 %41, 95
  br i1 %42, label %43, label %44

43:                                               ; preds = %39
  br label %15, !llvm.loop !7

44:                                               ; preds = %39
  %45 = load i8, ptr %7, align 1
  call void @scratch_buffer_append_char(i8 noundef signext %45)
  br label %15, !llvm.loop !7

46:                                               ; preds = %37
  %47 = load i8, ptr %7, align 1
  %48 = sext i8 %47 to i32
  %49 = icmp eq i32 %48, 46
  br i1 %49, label %50, label %84

50:                                               ; preds = %46
  %51 = load i8, ptr %7, align 1
  call void @scratch_buffer_append_char(i8 noundef signext %51)
  br label %52

52:                                               ; preds = %81, %80, %50
  %53 = load ptr, ptr %6, align 8
  %54 = getelementptr inbounds i8, ptr %53, i32 1
  store ptr %54, ptr %6, align 8
  %55 = load i8, ptr %53, align 1
  store i8 %55, ptr %7, align 1
  %56 = sext i8 %55 to i32
  %57 = icmp ne i32 %56, 0
  br i1 %57, label %58, label %74

58:                                               ; preds = %52
  %59 = load i8, ptr %7, align 1
  %60 = sext i8 %59 to i32
  %61 = icmp eq i32 %60, 95
  br i1 %61, label %72, label %62

62:                                               ; preds = %58
  %63 = load i8, ptr %7, align 1
  %64 = sext i8 %63 to i32
  %65 = icmp sge i32 %64, 48
  br i1 %65, label %66, label %70

66:                                               ; preds = %62
  %67 = load i8, ptr %7, align 1
  %68 = sext i8 %67 to i32
  %69 = icmp sle i32 %68, 57
  br label %70

70:                                               ; preds = %66, %62
  %71 = phi i1 [ false, %62 ], [ %69, %66 ]
  br label %72

72:                                               ; preds = %70, %58
  %73 = phi i1 [ true, %58 ], [ %71, %70 ]
  br label %74

74:                                               ; preds = %72, %52
  %75 = phi i1 [ false, %52 ], [ %73, %72 ]
  br i1 %75, label %76, label %83

76:                                               ; preds = %74
  %77 = load i8, ptr %7, align 1
  %78 = sext i8 %77 to i32
  %79 = icmp eq i32 %78, 95
  br i1 %79, label %80, label %81

80:                                               ; preds = %76
  br label %52, !llvm.loop !9

81:                                               ; preds = %76
  %82 = load i8, ptr %7, align 1
  call void @scratch_buffer_append_char(i8 noundef signext %82)
  br label %52, !llvm.loop !9

83:                                               ; preds = %74
  br label %84

84:                                               ; preds = %83, %46
  %85 = load i8, ptr %7, align 1
  %86 = sext i8 %85 to i32
  %87 = icmp eq i32 %86, 101
  br i1 %87, label %92, label %88

88:                                               ; preds = %84
  %89 = load i8, ptr %7, align 1
  %90 = sext i8 %89 to i32
  %91 = icmp eq i32 %90, 69
  br i1 %91, label %92, label %132

92:                                               ; preds = %88, %84
  %93 = load i8, ptr %7, align 1
  call void @scratch_buffer_append_char(i8 noundef signext %93)
  %94 = load ptr, ptr %6, align 8
  %95 = load i8, ptr %94, align 1
  %96 = sext i8 %95 to i32
  %97 = icmp eq i32 %96, 45
  br i1 %97, label %98, label %101

98:                                               ; preds = %92
  call void @scratch_buffer_append_char(i8 noundef signext 45)
  %99 = load ptr, ptr %6, align 8
  %100 = getelementptr inbounds i8, ptr %99, i32 1
  store ptr %100, ptr %6, align 8
  br label %110

101:                                              ; preds = %92
  %102 = load ptr, ptr %6, align 8
  %103 = load i8, ptr %102, align 1
  %104 = sext i8 %103 to i32
  %105 = icmp eq i32 %104, 43
  br i1 %105, label %106, label %109

106:                                              ; preds = %101
  %107 = load ptr, ptr %6, align 8
  %108 = getelementptr inbounds i8, ptr %107, i32 1
  store ptr %108, ptr %6, align 8
  br label %109

109:                                              ; preds = %106, %101
  br label %110

110:                                              ; preds = %109, %98
  br label %111

111:                                              ; preds = %129, %110
  %112 = load ptr, ptr %6, align 8
  %113 = getelementptr inbounds i8, ptr %112, i32 1
  store ptr %113, ptr %6, align 8
  %114 = load i8, ptr %112, align 1
  store i8 %114, ptr %7, align 1
  %115 = sext i8 %114 to i32
  %116 = icmp ne i32 %115, 0
  br i1 %116, label %117, label %127

117:                                              ; preds = %111
  %118 = load i8, ptr %7, align 1
  %119 = sext i8 %118 to i32
  %120 = icmp sge i32 %119, 48
  br i1 %120, label %121, label %125

121:                                              ; preds = %117
  %122 = load i8, ptr %7, align 1
  %123 = sext i8 %122 to i32
  %124 = icmp sle i32 %123, 57
  br label %125

125:                                              ; preds = %121, %117
  %126 = phi i1 [ false, %117 ], [ %124, %121 ]
  br label %127

127:                                              ; preds = %125, %111
  %128 = phi i1 [ false, %111 ], [ %126, %125 ]
  br i1 %128, label %129, label %131

129:                                              ; preds = %127
  %130 = load i8, ptr %7, align 1
  call void @scratch_buffer_append_char(i8 noundef signext %130)
  br label %111, !llvm.loop !10

131:                                              ; preds = %127
  br label %132

132:                                              ; preds = %131, %88
  store i32 16, ptr %8, align 4
  %133 = load i8, ptr %7, align 1
  %134 = sext i8 %133 to i32
  %135 = icmp eq i32 %134, 102
  br i1 %135, label %136, label %190

136:                                              ; preds = %132
  store i32 0, ptr %9, align 4
  br label %137

137:                                              ; preds = %167, %136
  %138 = load ptr, ptr %6, align 8
  %139 = getelementptr inbounds i8, ptr %138, i32 1
  store ptr %139, ptr %6, align 8
  %140 = load i8, ptr %138, align 1
  store i8 %140, ptr %7, align 1
  %141 = sext i8 %140 to i32
  %142 = icmp ne i32 %141, 0
  br i1 %142, label %143, label %153

143:                                              ; preds = %137
  %144 = load i8, ptr %7, align 1
  %145 = sext i8 %144 to i32
  %146 = icmp sge i32 %145, 48
  br i1 %146, label %147, label %151

147:                                              ; preds = %143
  %148 = load i8, ptr %7, align 1
  %149 = sext i8 %148 to i32
  %150 = icmp sle i32 %149, 57
  br label %151

151:                                              ; preds = %147, %143
  %152 = phi i1 [ false, %143 ], [ %150, %147 ]
  br label %153

153:                                              ; preds = %151, %137
  %154 = phi i1 [ false, %137 ], [ %152, %151 ]
  br i1 %154, label %155, label %174

155:                                              ; preds = %153
  %156 = load i32, ptr %9, align 4
  %157 = icmp sgt i32 %156, 100
  br i1 %157, label %158, label %167

158:                                              ; preds = %155
  %159 = load ptr, ptr %5, align 8
  %160 = icmp ne ptr %159, null
  br i1 %160, label %161, label %164

161:                                              ; preds = %158
  %162 = load ptr, ptr @err_invalid_float_width, align 8
  %163 = load ptr, ptr %5, align 8
  store ptr %162, ptr %163, align 8
  br label %164

164:                                              ; preds = %161, %158
  %165 = getelementptr inbounds %struct.Float, ptr %3, i32 0, i32 0
  store double 0.000000e+00, ptr %165, align 8
  %166 = getelementptr inbounds %struct.Float, ptr %3, i32 0, i32 1
  store i32 0, ptr %166, align 8
  br label %234

167:                                              ; preds = %155
  %168 = load i32, ptr %9, align 4
  %169 = mul nsw i32 %168, 10
  %170 = load i8, ptr %7, align 1
  %171 = sext i8 %170 to i32
  %172 = add nsw i32 %169, %171
  %173 = sub nsw i32 %172, 48
  store i32 %173, ptr %9, align 4
  br label %137, !llvm.loop !11

174:                                              ; preds = %153
  %175 = load i32, ptr %9, align 4
  switch i32 %175, label %180 [
    i32 0, label %176
    i32 32, label %176
    i32 16, label %177
    i32 64, label %178
    i32 128, label %179
  ]

176:                                              ; preds = %174, %174
  store i32 15, ptr %8, align 4
  br label %189

177:                                              ; preds = %174
  store i32 13, ptr %8, align 4
  br label %189

178:                                              ; preds = %174
  store i32 16, ptr %8, align 4
  br label %189

179:                                              ; preds = %174
  store i32 17, ptr %8, align 4
  br label %189

180:                                              ; preds = %174
  %181 = load ptr, ptr %5, align 8
  %182 = icmp ne ptr %181, null
  br i1 %182, label %183, label %186

183:                                              ; preds = %180
  %184 = load ptr, ptr @err_invalid_float_width, align 8
  %185 = load ptr, ptr %5, align 8
  store ptr %184, ptr %185, align 8
  br label %186

186:                                              ; preds = %183, %180
  %187 = getelementptr inbounds %struct.Float, ptr %3, i32 0, i32 0
  store double 0.000000e+00, ptr %187, align 8
  %188 = getelementptr inbounds %struct.Float, ptr %3, i32 0, i32 1
  store i32 0, ptr %188, align 8
  br label %234

189:                                              ; preds = %179, %178, %177, %176
  br label %190

190:                                              ; preds = %189, %132
  %191 = call ptr @scratch_buffer_to_string()
  store ptr %191, ptr %10, align 8
  store ptr null, ptr %11, align 8
  %192 = call ptr @__errno_location() #5
  store i32 0, ptr %192, align 4
  %193 = load ptr, ptr %10, align 8
  %194 = call double @strtod(ptr noundef %193, ptr noundef %11) #6
  store double %194, ptr %12, align 8
  %195 = load double, ptr %12, align 8
  %196 = fcmp oeq double %195, 0x7FF0000000000000
  br i1 %196, label %197, label %210

197:                                              ; preds = %190
  %198 = call ptr @__errno_location() #5
  %199 = load i32, ptr %198, align 4
  %200 = icmp eq i32 %199, 34
  br i1 %200, label %201, label %210

201:                                              ; preds = %197
  %202 = load ptr, ptr %5, align 8
  %203 = icmp ne ptr %202, null
  br i1 %203, label %204, label %207

204:                                              ; preds = %201
  %205 = load ptr, ptr @err_float_out_of_range, align 8
  %206 = load ptr, ptr %5, align 8
  store ptr %205, ptr %206, align 8
  br label %207

207:                                              ; preds = %204, %201
  %208 = getelementptr inbounds %struct.Float, ptr %3, i32 0, i32 0
  store double 0.000000e+00, ptr %208, align 8
  %209 = getelementptr inbounds %struct.Float, ptr %3, i32 0, i32 1
  store i32 0, ptr %209, align 8
  br label %234

210:                                              ; preds = %197, %190
  %211 = load i32, ptr getelementptr inbounds (%struct.ScratchBuf, ptr @scratch_buffer, i32 0, i32 1), align 4
  %212 = zext i32 %211 to i64
  %213 = getelementptr inbounds i8, ptr @scratch_buffer, i64 %212
  store ptr %213, ptr %13, align 8
  %214 = load double, ptr %12, align 8
  %215 = fcmp oeq double %214, 0.000000e+00
  br i1 %215, label %216, label %229

216:                                              ; preds = %210
  %217 = load ptr, ptr %11, align 8
  %218 = load ptr, ptr %13, align 8
  %219 = icmp ne ptr %217, %218
  br i1 %219, label %220, label %229

220:                                              ; preds = %216
  %221 = load ptr, ptr %5, align 8
  %222 = icmp ne ptr %221, null
  br i1 %222, label %223, label %226

223:                                              ; preds = %220
  %224 = load ptr, ptr @err_float_format_invalid, align 8
  %225 = load ptr, ptr %5, align 8
  store ptr %224, ptr %225, align 8
  br label %226

226:                                              ; preds = %223, %220
  %227 = getelementptr inbounds %struct.Float, ptr %3, i32 0, i32 0
  store double 0.000000e+00, ptr %227, align 8
  %228 = getelementptr inbounds %struct.Float, ptr %3, i32 0, i32 1
  store i32 0, ptr %228, align 8
  br label %234

229:                                              ; preds = %216, %210
  %230 = getelementptr inbounds %struct.Float, ptr %3, i32 0, i32 0
  %231 = load double, ptr %12, align 8
  store double %231, ptr %230, align 8
  %232 = getelementptr inbounds %struct.Float, ptr %3, i32 0, i32 1
  %233 = load i32, ptr %8, align 4
  store i32 %233, ptr %232, align 8
  br label %234

234:                                              ; preds = %229, %226, %207, %186, %164
  %235 = load { double, i32 }, ptr %3, align 8
  ret { double, i32 } %235
}