; Function Attrs: nounwind uwtable
define dso_local { double, i32 } @float_from_string(ptr nocapture noundef readonly %0, ptr noundef writeonly %1) local_unnamed_addr #1 {
  %3 = alloca ptr, align 8
  tail call void @scratch_buffer_clear() #6
  %4 = load i8, ptr %0, align 1
  %cond105 = icmp eq i8 %4, 0
  br i1 %cond105, label %.critedge10.thread, label %.lr.ph

.lr.ph:                                           ; preds = %2, %.backedge94
  %5 = phi i8 [ %11, %.backedge94 ], [ %4, %2 ]
  %.pn = phi ptr [ %6, %.backedge94 ], [ %0, %2 ]
  %6 = getelementptr inbounds i8, ptr %.pn, i64 1
  %7 = icmp eq i8 %5, 95
  %8 = add i8 %5, -48
  %9 = icmp ult i8 %8, 10
  %or.cond81 = or i1 %7, %9
  br i1 %or.cond81, label %.critedge2, label %.critedge

.critedge2:                                       ; preds = %.lr.ph
  br i1 %7, label %.backedge94, label %10

10:                                               ; preds = %.critedge2
  tail call void @scratch_buffer_append_char(i8 noundef signext %5) #6
  br label %.backedge94

.backedge94:                                      ; preds = %10, %.critedge2
  %11 = load i8, ptr %6, align 1
  %cond = icmp eq i8 %11, 0
  br i1 %cond, label %.critedge10.thread, label %.lr.ph, !llvm.loop !7

.critedge:                                        ; preds = %.lr.ph
  %12 = icmp eq i8 %5, 46
  br i1 %12, label %13, label %.critedge4

13:                                               ; preds = %.critedge
  tail call void @scratch_buffer_append_char(i8 noundef signext 46) #6
  %14 = load i8, ptr %6, align 1
  %.not72106 = icmp eq i8 %14, 0
  br i1 %.not72106, label %.critedge10.thread, label %.lr.ph107.preheader

.lr.ph107.preheader:                              ; preds = %13
  %15 = getelementptr inbounds i8, ptr %.pn, i64 2
  br label %.lr.ph107

.lr.ph107:                                        ; preds = %.lr.ph107.preheader, %.backedge
  %16 = phi i8 [ %23, %.backedge ], [ %14, %.lr.ph107.preheader ]
  %17 = phi ptr [ %22, %.backedge ], [ %15, %.lr.ph107.preheader ]
  %18 = icmp eq i8 %16, 95
  %19 = add i8 %16, -48
  %20 = icmp ult i8 %19, 10
  %or.cond83 = or i1 %18, %20
  br i1 %or.cond83, label %.critedge6, label %.critedge4

.critedge6:                                       ; preds = %.lr.ph107
  br i1 %18, label %.backedge, label %21

21:                                               ; preds = %.critedge6
  tail call void @scratch_buffer_append_char(i8 noundef signext %16) #6
  br label %.backedge

.backedge:                                        ; preds = %21, %.critedge6
  %22 = getelementptr inbounds i8, ptr %17, i64 1
  %23 = load i8, ptr %17, align 1
  %.not72 = icmp eq i8 %23, 0
  br i1 %.not72, label %.critedge10.thread, label %.lr.ph107, !llvm.loop !9

.critedge4:                                       ; preds = %.lr.ph107, %.critedge
  %.061 = phi i8 [ %5, %.critedge ], [ %16, %.lr.ph107 ]
  %.2 = phi ptr [ %6, %.critedge ], [ %17, %.lr.ph107 ]
  %24 = and i8 %.061, -33
  %or.cond = icmp eq i8 %24, 69
  br i1 %or.cond, label %25, label %.critedge10

25:                                               ; preds = %.critedge4
  tail call void @scratch_buffer_append_char(i8 noundef signext %.061) #6
  %26 = load i8, ptr %.2, align 1
  switch i8 %26, label %31 [
    i8 45, label %27
    i8 43, label %29
  ]

27:                                               ; preds = %25
  tail call void @scratch_buffer_append_char(i8 noundef signext 45) #6
  %28 = getelementptr inbounds i8, ptr %.2, i64 1
  br label %31

29:                                               ; preds = %25
  %30 = getelementptr inbounds i8, ptr %.2, i64 1
  br label %31

31:                                               ; preds = %25, %29, %27
  %.3 = phi ptr [ %28, %27 ], [ %30, %29 ], [ %.2, %25 ]
  %32 = getelementptr inbounds i8, ptr %.3, i64 1
  %33 = load i8, ptr %.3, align 1
  %34 = add i8 %33, -48
  %35 = icmp ult i8 %34, 10
  br i1 %35, label %.lr.ph108, label %.critedge10

.lr.ph108:                                        ; preds = %31, %.lr.ph108
  %36 = phi i8 [ %39, %.lr.ph108 ], [ %33, %31 ]
  %37 = phi ptr [ %38, %.lr.ph108 ], [ %32, %31 ]
  tail call void @scratch_buffer_append_char(i8 noundef signext %36) #6
  %38 = getelementptr inbounds i8, ptr %37, i64 1
  %39 = load i8, ptr %37, align 1
  %40 = add i8 %39, -48
  %41 = icmp ult i8 %40, 10
  br i1 %41, label %.lr.ph108, label %.critedge10, !llvm.loop !10

.critedge10:                                      ; preds = %.lr.ph108, %31, %.critedge4
  %.162 = phi i8 [ %.061, %.critedge4 ], [ %33, %31 ], [ %39, %.lr.ph108 ]
  %.5 = phi ptr [ %.2, %.critedge4 ], [ %32, %31 ], [ %38, %.lr.ph108 ]
  %42 = icmp eq i8 %.162, 102
  br i1 %42, label %.preheader, label %.critedge10.thread

.preheader:                                       ; preds = %.critedge10
  %43 = load i8, ptr %.5, align 1
  %44 = add i8 %43, -48
  %45 = icmp ult i8 %44, 10
  br i1 %45, label %.lr.ph111, label %.critedge12

.lr.ph111:                                        ; preds = %.preheader, %48
  %.in = phi i8 [ %54, %48 ], [ %43, %.preheader ]
  %.pn113 = phi ptr [ %49, %48 ], [ %.5, %.preheader ]
  %.059110 = phi i32 [ %53, %48 ], [ 0, %.preheader ]
  %46 = icmp sgt i32 %.059110, 100
  br i1 %46, label %47, label %48

47:                                               ; preds = %.lr.ph111
  %.not79 = icmp eq ptr %1, null
  br i1 %.not79, label %77, label %.sink.split

48:                                               ; preds = %.lr.ph111
  %49 = getelementptr inbounds i8, ptr %.pn113, i64 1
  %50 = zext nneg i8 %.in to i32
  %51 = mul nsw i32 %.059110, 10
  %52 = add i32 %51, -48
  %53 = add i32 %52, %50
  %54 = load i8, ptr %49, align 1
  %55 = add i8 %54, -48
  %56 = icmp ult i8 %55, 10
  br i1 %56, label %.lr.ph111, label %.critedge12, !llvm.loop !11

.critedge12:                                      ; preds = %48, %.preheader
  %.059.lcssa = phi i32 [ 0, %.preheader ], [ %53, %48 ]
  %57 = tail call i32 @llvm.fshl.i32(i32 %.059.lcssa, i32 %.059.lcssa, i32 28)
  %58 = icmp ult i32 %57, 9
  br i1 %58, label %switch.hole_check, label %59

59:                                               ; preds = %switch.hole_check, %.critedge12
  %.not78 = icmp eq ptr %1, null
  br i1 %.not78, label %77, label %.sink.split

switch.hole_check:                                ; preds = %.critedge12
  %switch.maskindex = trunc nuw i32 %57 to i16
  %switch.shifted = lshr i16 279, %switch.maskindex
  %switch.lobit = trunc i16 %switch.shifted to i1
  br i1 %switch.lobit, label %switch.lookup, label %59

switch.lookup:                                    ; preds = %switch.hole_check
  %60 = zext nneg i32 %57 to i64
  %switch.gep = getelementptr inbounds [9 x i32], ptr @switch.table.float_from_hex, i64 0, i64 %60
  %switch.load = load i32, ptr %switch.gep, align 4
  br label %.critedge10.thread

.critedge10.thread:                               ; preds = %.backedge94, %.backedge, %switch.lookup, %2, %13, %.critedge10
  %.060 = phi i32 [ 16, %.critedge10 ], [ 16, %13 ], [ 16, %2 ], [ %switch.load, %switch.lookup ], [ 16, %.backedge ], [ 16, %.backedge94 ]
  %61 = tail call ptr @scratch_buffer_to_string() #6
  store ptr null, ptr %3, align 8
  %62 = tail call ptr @__errno_location() #7
  store i32 0, ptr %62, align 4
  %63 = call double @strtod(ptr noundef %61, ptr noundef nonnull %3) #6
  %64 = fcmp oeq double %63, 0x7FF0000000000000
  br i1 %64, label %65, label %69

65:                                               ; preds = %.critedge10.thread
  %66 = load i32, ptr %62, align 4
  %67 = icmp eq i32 %66, 34
  br i1 %67, label %68, label %69

68:                                               ; preds = %65
  %.not77 = icmp eq ptr %1, null
  br i1 %.not77, label %77, label %.sink.split

69:                                               ; preds = %65, %.critedge10.thread
  %70 = fcmp oeq double %63, 0.000000e+00
  br i1 %70, label %71, label %77

71:                                               ; preds = %69
  %72 = load i32, ptr getelementptr inbounds (%struct.ScratchBuf, ptr @scratch_buffer, i64 0, i32 1), align 4
  %73 = zext i32 %72 to i64
  %74 = getelementptr inbounds i8, ptr @scratch_buffer, i64 %73
  %75 = load ptr, ptr %3, align 8
  %.not75 = icmp eq ptr %75, %74
  br i1 %.not75, label %77, label %76

76:                                               ; preds = %71
  %.not76 = icmp eq ptr %1, null
  br i1 %.not76, label %77, label %.sink.split

.sink.split:                                      ; preds = %76, %68, %59, %47
  %.str.3.sink = phi ptr [ @.str.1, %47 ], [ @.str.1, %59 ], [ @.str.2, %68 ], [ @.str.3, %76 ]
  store ptr %.str.3.sink, ptr %1, align 8
  br label %77

77:                                               ; preds = %.sink.split, %69, %71, %76, %68, %59, %47
  %.sroa.0.0 = phi double [ 0.000000e+00, %47 ], [ 0.000000e+00, %59 ], [ 0.000000e+00, %68 ], [ 0.000000e+00, %76 ], [ %63, %71 ], [ %63, %69 ], [ 0.000000e+00, %.sink.split ]
  %.sroa.6.0 = phi i32 [ 0, %47 ], [ 0, %59 ], [ 0, %68 ], [ 0, %76 ], [ %.060, %71 ], [ %.060, %69 ], [ 0, %.sink.split ]
  %.fca.0.insert = insertvalue { double, i32 } poison, double %.sroa.0.0, 0
  %.fca.1.insert = insertvalue { double, i32 } %.fca.0.insert, i32 %.sroa.6.0, 1
  ret { double, i32 } %.fca.1.insert
}